; Function Attrs: nounwind uwtable
define void @phpdbg_set_breakpoint_at(ptr noundef %0) local_unnamed_addr #1 {
  %2 = getelementptr inbounds i8, ptr %0, i64 72
  %3 = load ptr, ptr %2, align 8
  %.not = icmp eq ptr %3, null
  br i1 %.not, label %18, label %4

4:                                                ; preds = %1
  %5 = getelementptr inbounds i8, ptr %3, i64 56
  %6 = load ptr, ptr %5, align 8
  %7 = getelementptr inbounds i8, ptr %3, i64 64
  %8 = load i64, ptr %7, align 8
  %9 = tail call i64 @zend_hash_func(ptr noundef %6, i64 noundef %8) #14
  %10 = tail call ptr @zend_hash_index_find(ptr noundef nonnull getelementptr inbounds (%struct._zend_phpdbg_globals, ptr @phpdbg_globals, i64 0, i32 0, i64 5), i64 noundef %9) #14
  %.not11 = icmp eq ptr %10, null
  br i1 %.not11, label %11, label %14

11:                                               ; preds = %4
  %12 = load ptr, ptr %5, align 8
  %13 = load i64, ptr %7, align 8
  tail call fastcc void @phpdbg_create_conditional_break(ptr noundef nonnull %0, ptr noundef %12, i64 noundef %13, i64 noundef %9)
  br label %18

14:                                               ; preds = %4
  %15 = load i32, ptr getelementptr inbounds (%struct._zend_phpdbg_globals, ptr @phpdbg_globals, i64 0, i32 39, i64 1), align 4
  %16 = load ptr, ptr %5, align 8
  %17 = tail call i32 (i32, i32, ptr, ...) @phpdbg_print(i32 noundef 2, i32 noundef %15, ptr noundef nonnull @.str.46, ptr noundef %16) #14
  br label %18

18:                                               ; preds = %11, %14, %1
  ret void
}